(S'book'
p0
(dp1
I20
(S'boo'
p2
(dp3
I0
(g2
(dp4
tp5
stp6
sI34
(S'bool'
p7
(dp8
I67
(S'cook'
p9
(dp10
tp11
stp12
sI67
(S'cool'
p13
(dp14
tp15
sI100
(S'cake'
p16
(dp17
I67
(S'cart'
p18
(dp19
I67
(S'cape'
p20
(dp21
tp22
stp23
stp24
sI15
(S'books'
p25
(dp26
tp27
stp28
.